target datalayout = "e-m:e-p270:32:32-p271:32:32-p272:64:64-i64:64-i128:128-f80:128-n8:16:32:64-S128"
target triple = "x86_64-pc-linux-gnu"

%struct.H5O_storage_chunk_t = type { i32, i64, ptr, %union.anon }
%union.anon = type { %struct.H5O_storage_chunk_btree_t }
%struct.H5O_storage_chunk_btree_t = type { i64, ptr }

@H5D_init_g = external global i8, align 1
@H5_libterm_g = external global i8, align 1
@.str.17 = private unnamed_addr constant [18 x i8] c"    Address: %lu\0A\00", align 1

; Function Attrs: nounwind uwtable
define internal i32 @H5D__btree_idx_dump(ptr noundef %0, ptr noundef %1) #0 {
  %3 = alloca ptr, align 8
  %4 = alloca ptr, align 8
  store ptr %0, ptr %3, align 8, !tbaa !33
  store ptr %1, ptr %4, align 8, !tbaa !54
  %5 = load i8, ptr @H5D_init_g, align 1, !tbaa !14, !range !16, !noundef !17
  %6 = trunc i8 %5 to i1
  br i1 %6, label %11, label %7

7:                                                ; preds = %2
  %8 = load i8, ptr @H5_libterm_g, align 1, !tbaa !14, !range !16, !noundef !17
  %9 = trunc i8 %8 to i1
  %10 = xor i1 %9, true
  br label %11

11:                                               ; preds = %7, %2
  %12 = phi i1 [ true, %2 ], [ %10, %7 ]
  %13 = xor i1 %12, true
  %14 = xor i1 %13, true
  %15 = zext i1 %14 to i32
  %16 = sext i32 %15 to i64
  %17 = call i64 @llvm.expect.i64(i64 %16, i64 1)
  %18 = icmp ne i64 %17, 0
  br i1 %18, label %19, label %25

19:                                               ; preds = %11
  %20 = load ptr, ptr %4, align 8, !tbaa !54
  %21 = load ptr, ptr %3, align 8, !tbaa !33
  %22 = getelementptr inbounds nuw %struct.H5O_storage_chunk_t, ptr %21, i32 0, i32 1
  %23 = load i64, ptr %22, align 8, !tbaa !34
  %24 = call i32 (ptr, ptr, ...) @fprintf(ptr noundef %20, ptr noundef @.str.17, i64 noundef %23) #8
  br label %25

25:                                               ; preds = %19, %11
  ret i32 0
}